; Function Attrs: mustprogress uwtable
define i32 @udbg_stoi(ptr noundef nonnull align 8 dereferenceable(64) %s) local_unnamed_addr #1 {
entry:
  %ch = alloca [256 x i8], align 16
  %fUnion.i = getelementptr inbounds i8, ptr %s, i64 8
  %0 = load i16, ptr %fUnion.i, align 8
  %conv1.i = zext i16 %0 to i32
  %and.i = and i32 %conv1.i, 17
  %tobool.not.i = icmp eq i32 %and.i, 0
  br i1 %tobool.not.i, label %if.else.i, label %_ZNK6icu_7513UnicodeString9getBufferEv.exit

if.else.i:                                        ; preds = %entry
  %and5.i = and i32 %conv1.i, 2
  %tobool6.not.i = icmp eq i32 %and5.i, 0
  br i1 %tobool6.not.i, label %if.else9.i, label %if.then7.i

if.then7.i:                                       ; preds = %if.else.i
  %fBuffer.i = getelementptr inbounds i8, ptr %s, i64 10
  br label %_ZNK6icu_7513UnicodeString9getBufferEv.exit

if.else9.i:                                       ; preds = %if.else.i
  %fArray.i = getelementptr inbounds i8, ptr %s, i64 24
  %1 = load ptr, ptr %fArray.i, align 8
  br label %_ZNK6icu_7513UnicodeString9getBufferEv.exit

_ZNK6icu_7513UnicodeString9getBufferEv.exit:      ; preds = %entry, %if.then7.i, %if.else9.i
  %retval.0.i = phi ptr [ %fBuffer.i, %if.then7.i ], [ %1, %if.else9.i ], [ null, %entry ]
  tail call void asm sideeffect "", "rm,~{memory},~{dirflag},~{fpsr},~{flags}"(ptr %retval.0.i) #12, !srcloc !8
  %2 = load i16, ptr %fUnion.i, align 8
  %cmp.i.i = icmp slt i16 %2, 0
  %3 = ashr i16 %2, 5
  %shr.i.i = sext i16 %3 to i32
  %fLength.i = getelementptr inbounds i8, ptr %s, i64 12
  %4 = load i32, ptr %fLength.i, align 4
  %cond.i = select i1 %cmp.i.i, i32 %4, i32 %shr.i.i
  call void @u_UCharsToChars_75(ptr noundef %retval.0.i, ptr noundef nonnull %ch, i32 noundef %cond.i)
  %idxprom = sext i32 %cond.i to i64
  %arrayidx = getelementptr inbounds [256 x i8], ptr %ch, i64 0, i64 %idxprom
  store i8 0, ptr %arrayidx, align 1
  %call4 = call i32 @atoi(ptr nocapture noundef nonnull %ch) #16
  ret i32 %call4
}